; Function Attrs: mustprogress nounwind uwtable
define internal fastcc void @_ZN3ue212_GLOBAL__N_115Automaton_MergeD2Ev(ptr nocapture noundef nonnull readonly align 8 dereferenceable(1148) %this) unnamed_addr #3 align 2 personality ptr @__gxx_personality_v0 {
entry:
  %dead = getelementptr inbounds i8, ptr %this, i64 1120
  %0 = load ptr, ptr %dead, align 8
  %tobool.not.i.i.i = icmp eq ptr %0, null
  br i1 %tobool.not.i.i.i, label %_ZNSt6vectorItSaItEED2Ev.exit, label %if.then.i.i.i

if.then.i.i.i:                                    ; preds = %entry
  tail call void @_ZdlPv(ptr noundef nonnull %0) #19
  br label %_ZNSt6vectorItSaItEED2Ev.exit

_ZNSt6vectorItSaItEED2Ev.exit:                    ; preds = %entry, %if.then.i.i.i
  %fs = getelementptr inbounds i8, ptr %this, i64 64
  %1 = load ptr, ptr %fs, align 8
  %tobool.not.i.i.i1 = icmp eq ptr %1, null
  br i1 %tobool.not.i.i.i1, label %_ZNSt6vectorItSaItEED2Ev.exit3, label %if.then.i.i.i2

if.then.i.i.i2:                                   ; preds = %_ZNSt6vectorItSaItEED2Ev.exit
  tail call void @_ZdlPv(ptr noundef nonnull %1) #19
  br label %_ZNSt6vectorItSaItEED2Ev.exit3

_ZNSt6vectorItSaItEED2Ev.exit3:                   ; preds = %_ZNSt6vectorItSaItEED2Ev.exit, %if.then.i.i.i2
  %as = getelementptr inbounds i8, ptr %this, i64 40
  %2 = load ptr, ptr %as, align 8
  %tobool.not.i.i.i4 = icmp eq ptr %2, null
  br i1 %tobool.not.i.i.i4, label %_ZNSt6vectorItSaItEED2Ev.exit6, label %if.then.i.i.i5

if.then.i.i.i5:                                   ; preds = %_ZNSt6vectorItSaItEED2Ev.exit3
  tail call void @_ZdlPv(ptr noundef nonnull %2) #19
  br label %_ZNSt6vectorItSaItEED2Ev.exit6

_ZNSt6vectorItSaItEED2Ev.exit6:                   ; preds = %_ZNSt6vectorItSaItEED2Ev.exit3, %if.then.i.i.i5
  %nfas = getelementptr inbounds i8, ptr %this, i64 16
  %3 = load ptr, ptr %nfas, align 8
  %tobool.not.i.i.i7 = icmp eq ptr %3, null
  br i1 %tobool.not.i.i.i7, label %_ZNSt6vectorIPKN3ue27raw_dfaESaIS3_EED2Ev.exit, label %if.then.i.i.i8

if.then.i.i.i8:                                   ; preds = %_ZNSt6vectorItSaItEED2Ev.exit6
  tail call void @_ZdlPv(ptr noundef nonnull %3) #19
  br label %_ZNSt6vectorIPKN3ue27raw_dfaESaIS3_EED2Ev.exit

_ZNSt6vectorIPKN3ue27raw_dfaESaIS3_EED2Ev.exit:   ; preds = %_ZNSt6vectorItSaItEED2Ev.exit6, %if.then.i.i.i8
  ret void
}